target datalayout = "e-m:e-p270:32:32-p271:32:32-p272:64:64-i64:64-i128:128-f80:128-n8:16:32:64-S128"
target triple = "x86_64-pc-linux-gnu"

%"class.glslang::HlslGrammar" = type { %"class.glslang::HlslTokenStream.base", ptr, ptr, i8, ptr }
%"class.glslang::HlslTokenStream.base" = type <{ ptr, %"struct.glslang::HlslToken", ptr, %"class.glslang::TVector", %"class.glslang::TVector.0", %"class.glslang::TVector.4", [2 x %"struct.glslang::HlslToken"], i32, [4 x i8], [2 x %"struct.glslang::HlslToken"], i32 }>
%"struct.glslang::HlslToken" = type { %"struct.glslang::TSourceLoc", i32, %union.anon }
%"struct.glslang::TSourceLoc" = type { ptr, i32, i32, i32 }
%union.anon = type { ptr }
%"class.glslang::TVector" = type { %"class.std::vector" }
%"class.std::vector" = type { %"struct.std::_Vector_base" }
%"struct.std::_Vector_base" = type { %"struct.std::_Vector_base<const glslang::TVector<glslang::HlslToken> *, glslang::pool_allocator<const glslang::TVector<glslang::HlslToken> *>>::_Vector_impl" }
%"struct.std::_Vector_base<const glslang::TVector<glslang::HlslToken> *, glslang::pool_allocator<const glslang::TVector<glslang::HlslToken> *>>::_Vector_impl" = type { %"class.glslang::pool_allocator", %"struct.std::_Vector_base<const glslang::TVector<glslang::HlslToken> *, glslang::pool_allocator<const glslang::TVector<glslang::HlslToken> *>>::_Vector_impl_data" }
%"class.glslang::pool_allocator" = type { ptr }
%"struct.std::_Vector_base<const glslang::TVector<glslang::HlslToken> *, glslang::pool_allocator<const glslang::TVector<glslang::HlslToken> *>>::_Vector_impl_data" = type { ptr, ptr, ptr }
%"class.glslang::TVector.0" = type { %"class.std::vector.1" }
%"class.std::vector.1" = type { %"struct.std::_Vector_base.2" }
%"struct.std::_Vector_base.2" = type { %"struct.std::_Vector_base<int, glslang::pool_allocator<int>>::_Vector_impl" }
%"struct.std::_Vector_base<int, glslang::pool_allocator<int>>::_Vector_impl" = type { %"class.glslang::pool_allocator.3", %"struct.std::_Vector_base<int, glslang::pool_allocator<int>>::_Vector_impl_data" }
%"class.glslang::pool_allocator.3" = type { ptr }
%"struct.std::_Vector_base<int, glslang::pool_allocator<int>>::_Vector_impl_data" = type { ptr, ptr, ptr }
%"class.glslang::TVector.4" = type { %"class.std::vector.5" }
%"class.std::vector.5" = type { %"struct.std::_Vector_base.6" }
%"struct.std::_Vector_base.6" = type { %"struct.std::_Vector_base<glslang::HlslToken, glslang::pool_allocator<glslang::HlslToken>>::_Vector_impl" }
%"struct.std::_Vector_base<glslang::HlslToken, glslang::pool_allocator<glslang::HlslToken>>::_Vector_impl" = type { %"class.glslang::pool_allocator.7", %"struct.std::_Vector_base<glslang::HlslToken, glslang::pool_allocator<glslang::HlslToken>>::_Vector_impl_data" }
%"class.glslang::pool_allocator.7" = type { ptr }
%"struct.std::_Vector_base<glslang::HlslToken, glslang::pool_allocator<glslang::HlslToken>>::_Vector_impl_data" = type { ptr, ptr, ptr }
%"class.glslang::HlslTokenStream" = type <{ ptr, %"struct.glslang::HlslToken", ptr, %"class.glslang::TVector", %"class.glslang::TVector.0", %"class.glslang::TVector.4", [2 x %"struct.glslang::HlslToken"], i32, [4 x i8], [2 x %"struct.glslang::HlslToken"], i32, [4 x i8] }>
%"class.glslang::TIntermediate" = type { i32, %"class.std::__cxx11::basic_string.118", %"class.std::__cxx11::basic_string.118", %"class.std::__cxx11::list.123", i32, i32, %"struct.glslang::SpvVersion", ptr, %"class.std::set.128", %"class.glslang::MustBeAssigned", i32, i32, i32, i8, i8, i8, i8, i8, i8, i8, i8, i8, i8, [3 x i32], [3 x i8], [3 x i32], i64, %"class.std::__cxx11::basic_string.118", %"class.std::__cxx11::basic_string.118", i32, i32, i32, ptr, ptr, i32, i8, i32, i32, i32, i32, i8, i8, i8, i32, i32, i32, i8, i8, i8, i8, i8, i8, i8, i32, i32, i8, i32, i8, %"class.std::vector.136", i8, i8, i8, i32, i32, i32, i32, i8, i32, %"struct.std::array.141", %"struct.std::array.142", %"class.std::vector.148", i8, i8, i8, i8, i8, i8, i8, %"class.std::set.153", i32, i8, i8, i8, i8, i8, i8, ptr, ptr, %"class.std::map.158", %"class.std::map.158", %"class.std::unordered_map", i32, i8, i8, %"class.glslang::TNumericFeatures", %"class.std::unordered_map.168", %"class.std::unordered_set", %"class.std::vector.200", [5 x %"class.std::vector.205"], [4 x %"class.std::vector.210"], %"class.std::set.153", %"class.std::__cxx11::basic_string.118", %"class.std::__cxx11::basic_string.118", %"class.std::map.215", %"class.glslang::TProcesses" }
%"class.std::__cxx11::list.123" = type { %"class.std::__cxx11::_List_base.124" }
%"class.std::__cxx11::_List_base.124" = type { %"struct.std::__cxx11::_List_base<glslang::TCall, std::allocator<glslang::TCall>>::_List_impl" }
%"struct.std::__cxx11::_List_base<glslang::TCall, std::allocator<glslang::TCall>>::_List_impl" = type { %"struct.std::__detail::_List_node_header" }
%"struct.std::__detail::_List_node_header" = type { %"struct.std::__detail::_List_node_base", i64 }
%"struct.std::__detail::_List_node_base" = type { ptr, ptr }
%"struct.glslang::SpvVersion" = type <{ i32, i32, i32, i32, i8, [3 x i8] }>
%"class.std::set.128" = type { %"class.std::_Rb_tree.129" }
%"class.std::_Rb_tree.129" = type { %"struct.std::_Rb_tree<std::__cxx11::basic_string<char>, std::__cxx11::basic_string<char>, std::_Identity<std::__cxx11::basic_string<char>>, std::less<std::__cxx11::basic_string<char>>>::_Rb_tree_impl" }
%"struct.std::_Rb_tree<std::__cxx11::basic_string<char>, std::__cxx11::basic_string<char>, std::_Identity<std::__cxx11::basic_string<char>>, std::less<std::__cxx11::basic_string<char>>>::_Rb_tree_impl" = type { %"struct.std::_Rb_tree_key_compare.133", %"struct.std::_Rb_tree_header" }
%"struct.std::_Rb_tree_key_compare.133" = type { %"struct.std::less.134" }
%"struct.std::less.134" = type { i8 }
%"struct.std::_Rb_tree_header" = type { %"struct.std::_Rb_tree_node_base", i64 }
%"struct.std::_Rb_tree_node_base" = type { i32, ptr, ptr, ptr }
%"class.glslang::MustBeAssigned" = type <{ %struct.TBuiltInResource, i8, [3 x i8] }>
%struct.TBuiltInResource = type { i32, i32, i32, i32, i32, i32, i32, i32, i32, i32, i32, i32, i32, i32, i32, i32, i32, i32, i32, i32, i32, i32, i32, i32, i32, i32, i32, i32, i32, i32, i32, i32, i32, i32, i32, i32, i32, i32, i32, i32, i32, i32, i32, i32, i32, i32, i32, i32, i32, i32, i32, i32, i32, i32, i32, i32, i32, i32, i32, i32, i32, i32, i32, i32, i32, i32, i32, i32, i32, i32, i32, i32, i32, i32, i32, i32, i32, i32, i32, i32, i32, i32, i32, i32, i32, i32, i32, i32, i32, i32, i32, i32, i32, i32, i32, i32, i32, i32, i32, i32, i32, i32, %struct.TLimits }
%struct.TLimits = type { i8, i8, i8, i8, i8, i8, i8, i8, i8 }
%"class.std::vector.136" = type { %"struct.std::_Vector_base.137" }
%"struct.std::_Vector_base.137" = type { %"struct.std::_Vector_base<glslang::TXfbBuffer, std::allocator<glslang::TXfbBuffer>>::_Vector_impl" }
%"struct.std::_Vector_base<glslang::TXfbBuffer, std::allocator<glslang::TXfbBuffer>>::_Vector_impl" = type { %"struct.std::_Vector_base<glslang::TXfbBuffer, std::allocator<glslang::TXfbBuffer>>::_Vector_impl_data" }
%"struct.std::_Vector_base<glslang::TXfbBuffer, std::allocator<glslang::TXfbBuffer>>::_Vector_impl_data" = type { ptr, ptr, ptr }
%"struct.std::array.141" = type { [6 x i32] }
%"struct.std::array.142" = type { [6 x %"class.std::map.143"] }
%"class.std::map.143" = type { %"class.std::_Rb_tree.144" }
%"class.std::_Rb_tree.144" = type { %"struct.std::_Rb_tree<int, std::pair<const int, int>, std::_Select1st<std::pair<const int, int>>, std::less<int>>::_Rb_tree_impl" }
%"struct.std::_Rb_tree<int, std::pair<const int, int>, std::_Select1st<std::pair<const int, int>>, std::less<int>>::_Rb_tree_impl" = type { %"struct.std::_Rb_tree_key_compare.46", %"struct.std::_Rb_tree_header" }
%"struct.std::_Rb_tree_key_compare.46" = type { %"struct.std::less.47" }
%"struct.std::less.47" = type { i8 }
%"class.std::vector.148" = type { %"struct.std::_Vector_base.149" }
%"struct.std::_Vector_base.149" = type { %"struct.std::_Vector_base<std::__cxx11::basic_string<char>, std::allocator<std::__cxx11::basic_string<char>>>::_Vector_impl" }
%"struct.std::_Vector_base<std::__cxx11::basic_string<char>, std::allocator<std::__cxx11::basic_string<char>>>::_Vector_impl" = type { %"struct.std::_Vector_base<std::__cxx11::basic_string<char>, std::allocator<std::__cxx11::basic_string<char>>>::_Vector_impl_data" }
%"struct.std::_Vector_base<std::__cxx11::basic_string<char>, std::allocator<std::__cxx11::basic_string<char>>>::_Vector_impl_data" = type { ptr, ptr, ptr }
%"class.std::map.158" = type { %"class.std::_Rb_tree.159" }
%"class.std::_Rb_tree.159" = type { %"struct.std::_Rb_tree<std::__cxx11::basic_string<char, std::char_traits<char>, glslang::pool_allocator<char>>, std::pair<const std::__cxx11::basic_string<char, std::char_traits<char>, glslang::pool_allocator<char>>, glslang::AstRefType>, std::_Select1st<std::pair<const std::__cxx11::basic_string<char, std::char_traits<char>, glslang::pool_allocator<char>>, glslang::AstRefType>>, std::less<std::__cxx11::basic_string<char, std::char_traits<char>, glslang::pool_allocator<char>>>>::_Rb_tree_impl" }
%"struct.std::_Rb_tree<std::__cxx11::basic_string<char, std::char_traits<char>, glslang::pool_allocator<char>>, std::pair<const std::__cxx11::basic_string<char, std::char_traits<char>, glslang::pool_allocator<char>>, glslang::AstRefType>, std::_Select1st<std::pair<const std::__cxx11::basic_string<char, std::char_traits<char>, glslang::pool_allocator<char>>, glslang::AstRefType>>, std::less<std::__cxx11::basic_string<char, std::char_traits<char>, glslang::pool_allocator<char>>>>::_Rb_tree_impl" = type { %"struct.std::_Rb_tree_key_compare", %"struct.std::_Rb_tree_header" }
%"struct.std::_Rb_tree_key_compare" = type { %"struct.std::less" }
%"struct.std::less" = type { i8 }
%"class.std::unordered_map" = type { %"class.std::_Hashtable" }
%"class.std::_Hashtable" = type { ptr, i64, %"struct.std::__detail::_Hash_node_base", i64, %"struct.std::__detail::_Prime_rehash_policy", ptr }
%"struct.std::__detail::_Hash_node_base" = type { ptr }
%"struct.std::__detail::_Prime_rehash_policy" = type { float, i64 }
%"class.glslang::TNumericFeatures" = type { i32 }
%"class.std::unordered_map.168" = type { %"class.std::_Hashtable.169" }
%"class.std::_Hashtable.169" = type { ptr, i64, %"struct.std::__detail::_Hash_node_base", i64, %"struct.std::__detail::_Prime_rehash_policy", ptr }
%"class.std::unordered_set" = type { %"class.std::_Hashtable.182" }
%"class.std::_Hashtable.182" = type { ptr, i64, %"struct.std::__detail::_Hash_node_base", i64, %"struct.std::__detail::_Prime_rehash_policy", ptr }
%"class.std::vector.200" = type { %"struct.std::_Vector_base.201" }
%"struct.std::_Vector_base.201" = type { %"struct.std::_Vector_base<glslang::TOffsetRange, std::allocator<glslang::TOffsetRange>>::_Vector_impl" }
%"struct.std::_Vector_base<glslang::TOffsetRange, std::allocator<glslang::TOffsetRange>>::_Vector_impl" = type { %"struct.std::_Vector_base<glslang::TOffsetRange, std::allocator<glslang::TOffsetRange>>::_Vector_impl_data" }
%"struct.std::_Vector_base<glslang::TOffsetRange, std::allocator<glslang::TOffsetRange>>::_Vector_impl_data" = type { ptr, ptr, ptr }
%"class.std::vector.205" = type { %"struct.std::_Vector_base.206" }
%"struct.std::_Vector_base.206" = type { %"struct.std::_Vector_base<glslang::TIoRange, std::allocator<glslang::TIoRange>>::_Vector_impl" }
%"struct.std::_Vector_base<glslang::TIoRange, std::allocator<glslang::TIoRange>>::_Vector_impl" = type { %"struct.std::_Vector_base<glslang::TIoRange, std::allocator<glslang::TIoRange>>::_Vector_impl_data" }
%"struct.std::_Vector_base<glslang::TIoRange, std::allocator<glslang::TIoRange>>::_Vector_impl_data" = type { ptr, ptr, ptr }
%"class.std::vector.210" = type { %"struct.std::_Vector_base.211" }
%"struct.std::_Vector_base.211" = type { %"struct.std::_Vector_base<glslang::TRange, std::allocator<glslang::TRange>>::_Vector_impl" }
%"struct.std::_Vector_base<glslang::TRange, std::allocator<glslang::TRange>>::_Vector_impl" = type { %"struct.std::_Vector_base<glslang::TRange, std::allocator<glslang::TRange>>::_Vector_impl_data" }
%"struct.std::_Vector_base<glslang::TRange, std::allocator<glslang::TRange>>::_Vector_impl_data" = type { ptr, ptr, ptr }
%"class.std::set.153" = type { %"class.std::_Rb_tree.154" }
%"class.std::_Rb_tree.154" = type { %"struct.std::_Rb_tree<std::__cxx11::basic_string<char, std::char_traits<char>, glslang::pool_allocator<char>>, std::__cxx11::basic_string<char, std::char_traits<char>, glslang::pool_allocator<char>>, std::_Identity<std::__cxx11::basic_string<char, std::char_traits<char>, glslang::pool_allocator<char>>>, std::less<std::__cxx11::basic_string<char, std::char_traits<char>, glslang::pool_allocator<char>>>>::_Rb_tree_impl" }
%"struct.std::_Rb_tree<std::__cxx11::basic_string<char, std::char_traits<char>, glslang::pool_allocator<char>>, std::__cxx11::basic_string<char, std::char_traits<char>, glslang::pool_allocator<char>>, std::_Identity<std::__cxx11::basic_string<char, std::char_traits<char>, glslang::pool_allocator<char>>>, std::less<std::__cxx11::basic_string<char, std::char_traits<char>, glslang::pool_allocator<char>>>>::_Rb_tree_impl" = type { %"struct.std::_Rb_tree_key_compare", %"struct.std::_Rb_tree_header" }
%"class.std::__cxx11::basic_string.118" = type { %"struct.std::__cxx11::basic_string<char>::_Alloc_hider", i64, %union.anon.122 }
%"struct.std::__cxx11::basic_string<char>::_Alloc_hider" = type { ptr }
%union.anon.122 = type { i64, [8 x i8] }
%"class.std::map.215" = type { %"class.std::_Rb_tree.216" }
%"class.std::_Rb_tree.216" = type { %"struct.std::_Rb_tree<std::__cxx11::basic_string<char>, std::pair<const std::__cxx11::basic_string<char>, std::__cxx11::basic_string<char>>, std::_Select1st<std::pair<const std::__cxx11::basic_string<char>, std::__cxx11::basic_string<char>>>, std::less<std::__cxx11::basic_string<char>>>::_Rb_tree_impl" }
%"struct.std::_Rb_tree<std::__cxx11::basic_string<char>, std::pair<const std::__cxx11::basic_string<char>, std::__cxx11::basic_string<char>>, std::_Select1st<std::pair<const std::__cxx11::basic_string<char>, std::__cxx11::basic_string<char>>>, std::less<std::__cxx11::basic_string<char>>>::_Rb_tree_impl" = type { %"struct.std::_Rb_tree_key_compare.133", %"struct.std::_Rb_tree_header" }
%"class.glslang::TProcesses" = type { %"class.std::vector.148" }

@.str = private unnamed_addr constant [9 x i8] c"Expected\00", align 1
@.str.1 = private unnamed_addr constant [1 x i8] zeroinitializer, align 1
@.str.3 = private unnamed_addr constant [12 x i8] c"declaration\00", align 1

; Function Attrs: mustprogress nounwind uwtable
define void @_ZN7glslang11HlslGrammar8expectedEPKc(ptr noundef nonnull align 8 dereferenceable(360) %0, ptr noundef %1) #0 align 2 {
  %3 = alloca ptr, align 8
  %4 = alloca ptr, align 8
  store ptr %0, ptr %3, align 8
  store ptr %1, ptr %4, align 8
  %5 = load ptr, ptr %3, align 8
  %6 = getelementptr inbounds %"class.glslang::HlslGrammar", ptr %5, i32 0, i32 1
  %7 = load ptr, ptr %6, align 8
  %8 = getelementptr inbounds %"class.glslang::HlslTokenStream", ptr %5, i32 0, i32 1
  %9 = getelementptr inbounds %"struct.glslang::HlslToken", ptr %8, i32 0, i32 0
  %10 = load ptr, ptr %4, align 8
  %11 = load ptr, ptr %7, align 8
  %12 = getelementptr inbounds ptr, ptr %11, i64 43
  %13 = load ptr, ptr %12, align 8
  call void (ptr, ptr, ptr, ptr, ptr, ...) %13(ptr noundef nonnull align 8 dereferenceable(1280) %7, ptr noundef nonnull align 8 dereferenceable(24) %9, ptr noundef @.str, ptr noundef %10, ptr noundef @.str.1)
  ret void
}

; Function Attrs: mustprogress nounwind uwtable
define linkonce_odr void @_ZN7glslang13TIntermediate11setTreeRootEP11TIntermNode(ptr noundef nonnull align 8 dereferenceable(2024) %0, ptr noundef %1) #0 comdat align 2 {
  %3 = alloca ptr, align 8
  %4 = alloca ptr, align 8
  store ptr %0, ptr %3, align 8
  store ptr %1, ptr %4, align 8
  %5 = load ptr, ptr %3, align 8
  %6 = load ptr, ptr %4, align 8
  %7 = getelementptr inbounds %"class.glslang::TIntermediate", ptr %5, i32 0, i32 7
  store ptr %6, ptr %7, align 8
  ret void
}

; Function Attrs: mustprogress nounwind uwtable
define noundef zeroext i1 @_ZN7glslang11HlslGrammar21acceptDeclarationListERP11TIntermNode(ptr noundef nonnull align 8 dereferenceable(360) %0, ptr noundef nonnull align 8 dereferenceable(8) %1) #0 align 2 {
  %3 = alloca i1, align 1
  %4 = alloca ptr, align 8
  %5 = alloca ptr, align 8
  store ptr %0, ptr %4, align 8
  store ptr %1, ptr %5, align 8
  %6 = load ptr, ptr %4, align 8
  br label %7

7:                                                ; preds = %21, %2
  br label %8

8:                                                ; preds = %9, %7
  br label %9

9:                                                ; preds = %8
  %10 = call noundef zeroext i1 @_ZN7glslang15HlslTokenStream16acceptTokenClassENS_15EHlslTokenClassE(ptr noundef nonnull align 8 dereferenceable(324) %6, i32 noundef 365)
  br i1 %10, label %8, label %11, !llvm.loop !4

11:                                               ; preds = %9
  %12 = call noundef zeroext i1 @_ZNK7glslang15HlslTokenStream14peekTokenClassENS_15EHlslTokenClassE(ptr noundef nonnull align 8 dereferenceable(324) %6, i32 noundef 0)
  br i1 %12, label %15, label %13

13:                                               ; preds = %11
  %14 = call noundef zeroext i1 @_ZNK7glslang15HlslTokenStream14peekTokenClassENS_15EHlslTokenClassE(ptr noundef nonnull align 8 dereferenceable(324) %6, i32 noundef 360)
  br i1 %14, label %15, label %16

15:                                               ; preds = %13, %11
  store i1 true, ptr %3, align 1
  br label %23

16:                                               ; preds = %13
  %17 = load ptr, ptr %5, align 8
  %18 = call noundef zeroext i1 @_ZN7glslang11HlslGrammar17acceptDeclarationERP11TIntermNode(ptr noundef nonnull align 8 dereferenceable(360) %6, ptr noundef nonnull align 8 dereferenceable(8) %17)
  br i1 %18, label %20, label %19

19:                                               ; preds = %16
  call void @_ZN7glslang11HlslGrammar8expectedEPKc(ptr noundef nonnull align 8 dereferenceable(360) %6, ptr noundef @.str.3)
  store i1 false, ptr %3, align 1
  br label %23

20:                                               ; preds = %16
  br label %21

21:                                               ; preds = %20
  br i1 true, label %7, label %22, !llvm.loop !6

22:                                               ; preds = %21
  store i1 true, ptr %3, align 1
  br label %23

23:                                               ; preds = %22, %19, %15
  %24 = load i1, ptr %3, align 1
  ret i1 %24
}

; Function Attrs: mustprogress nounwind uwtable
define noundef zeroext i1 @_ZN7glslang11HlslGrammar21acceptCompilationUnitEv(ptr noundef nonnull align 8 dereferenceable(360) %0) #0 align 2 {
  %2 = alloca i1, align 1
  %3 = alloca ptr, align 8
  store ptr %0, ptr %3, align 8
  %4 = load ptr, ptr %3, align 8
  %5 = getelementptr inbounds %"class.glslang::HlslGrammar", ptr %4, i32 0, i32 4
  %6 = call noundef zeroext i1 @_ZN7glslang11HlslGrammar21acceptDeclarationListERP11TIntermNode(ptr noundef nonnull align 8 dereferenceable(360) %4, ptr noundef nonnull align 8 dereferenceable(8) %5)
  br i1 %6, label %8, label %7

7:                                                ; preds = %1
  store i1 false, ptr %2, align 1
  br label %35

8:                                                ; preds = %1
  %9 = call noundef zeroext i1 @_ZNK7glslang15HlslTokenStream14peekTokenClassENS_15EHlslTokenClassE(ptr noundef nonnull align 8 dereferenceable(324) %4, i32 noundef 0)
  br i1 %9, label %11, label %10

10:                                               ; preds = %8
  store i1 false, ptr %2, align 1
  br label %35

11:                                               ; preds = %8
  %12 = getelementptr inbounds %"class.glslang::HlslGrammar", ptr %4, i32 0, i32 4
  %13 = load ptr, ptr %12, align 8
  %14 = icmp ne ptr %13, null
  br i1 %14, label %15, label %30

15:                                               ; preds = %11
  %16 = getelementptr inbounds %"class.glslang::HlslGrammar", ptr %4, i32 0, i32 4
  %17 = load ptr, ptr %16, align 8
  %18 = load ptr, ptr %17, align 8
  %19 = getelementptr inbounds ptr, ptr %18, i64 6
  %20 = load ptr, ptr %19, align 8
  %21 = call noundef ptr %20(ptr noundef nonnull align 8 dereferenceable(32) %17)
  %22 = icmp ne ptr %21, null
  br i1 %22, label %30, label %23

23:                                               ; preds = %15
  %24 = getelementptr inbounds %"class.glslang::HlslGrammar", ptr %4, i32 0, i32 2
  %25 = load ptr, ptr %24, align 8
  %26 = getelementptr inbounds %"class.glslang::HlslGrammar", ptr %4, i32 0, i32 4
  %27 = load ptr, ptr %26, align 8
  %28 = call noundef ptr @_ZN7glslang13TIntermediate13growAggregateEP11TIntermNodeS2_(ptr noundef nonnull align 8 dereferenceable(2024) %25, ptr noundef null, ptr noundef %27)
  %29 = getelementptr inbounds %"class.glslang::HlslGrammar", ptr %4, i32 0, i32 4
  store ptr %28, ptr %29, align 8
  br label %30

30:                                               ; preds = %23, %15, %11
  %31 = getelementptr inbounds %"class.glslang::HlslGrammar", ptr %4, i32 0, i32 2
  %32 = load ptr, ptr %31, align 8
  %33 = getelementptr inbounds %"class.glslang::HlslGrammar", ptr %4, i32 0, i32 4
  %34 = load ptr, ptr %33, align 8
  call void @_ZN7glslang13TIntermediate11setTreeRootEP11TIntermNode(ptr noundef nonnull align 8 dereferenceable(2024) %32, ptr noundef %34)
  store i1 true, ptr %2, align 1
  br label %35

35:                                               ; preds = %30, %10, %7
  %36 = load i1, ptr %2, align 1
  ret i1 %36
}