; Function Attrs: mustprogress nounwind uwtable
define noundef zeroext i1 @_ZN7glslang11HlslGrammar21acceptCompilationUnitEv(ptr noundef nonnull align 8 dereferenceable(360) %0) local_unnamed_addr #0 align 2 {
  %2 = getelementptr inbounds i8, ptr %0, i64 352
  br label %3

3:                                                ; preds = %.backedge, %1
  %4 = tail call noundef zeroext i1 @_ZN7glslang15HlslTokenStream16acceptTokenClassENS_15EHlslTokenClassE(ptr noundef nonnull align 8 dereferenceable(324) %0, i32 noundef 365) #16
  br i1 %4, label %.backedge, label %5

.backedge:                                        ; preds = %3, %9
  br label %3, !llvm.loop !4

5:                                                ; preds = %3
  %6 = tail call noundef zeroext i1 @_ZNK7glslang15HlslTokenStream14peekTokenClassENS_15EHlslTokenClassE(ptr noundef nonnull align 8 dereferenceable(324) %0, i32 noundef 0) #16
  br i1 %6, label %17, label %7

7:                                                ; preds = %5
  %8 = tail call noundef zeroext i1 @_ZNK7glslang15HlslTokenStream14peekTokenClassENS_15EHlslTokenClassE(ptr noundef nonnull align 8 dereferenceable(324) %0, i32 noundef 360) #16
  br i1 %8, label %17, label %9

9:                                                ; preds = %7
  %10 = tail call noundef zeroext i1 @_ZN7glslang11HlslGrammar17acceptDeclarationERP11TIntermNode(ptr noundef nonnull align 8 dereferenceable(360) %0, ptr noundef nonnull align 8 dereferenceable(8) %2)
  br i1 %10, label %.backedge, label %_ZN7glslang11HlslGrammar21acceptDeclarationListERP11TIntermNode.exit

_ZN7glslang11HlslGrammar21acceptDeclarationListERP11TIntermNode.exit: ; preds = %9
  %11 = getelementptr inbounds i8, ptr %0, i64 328
  %12 = load ptr, ptr %11, align 8
  %13 = getelementptr inbounds i8, ptr %0, i64 8
  %14 = load ptr, ptr %12, align 8
  %15 = getelementptr inbounds i8, ptr %14, i64 344
  %16 = load ptr, ptr %15, align 8
  tail call void (ptr, ptr, ptr, ptr, ptr, ...) %16(ptr noundef nonnull align 8 dereferenceable(1280) %12, ptr noundef nonnull align 8 dereferenceable(24) %13, ptr noundef nonnull @.str, ptr noundef nonnull @.str.3, ptr noundef nonnull @.str.1) #16
  br label %35

17:                                               ; preds = %7, %5
  %18 = tail call noundef zeroext i1 @_ZNK7glslang15HlslTokenStream14peekTokenClassENS_15EHlslTokenClassE(ptr noundef nonnull align 8 dereferenceable(324) %0, i32 noundef 0) #16
  br i1 %18, label %19, label %35

19:                                               ; preds = %17
  %20 = load ptr, ptr %2, align 8
  %.not = icmp eq ptr %20, null
  br i1 %.not, label %30, label %21

21:                                               ; preds = %19
  %22 = load ptr, ptr %20, align 8
  %23 = getelementptr inbounds i8, ptr %22, i64 48
  %24 = load ptr, ptr %23, align 8
  %25 = tail call noundef ptr %24(ptr noundef nonnull align 8 dereferenceable(32) %20) #16
  %.not3 = icmp eq ptr %25, null
  %.pre = load ptr, ptr %2, align 8
  br i1 %.not3, label %26, label %30

26:                                               ; preds = %21
  %27 = getelementptr inbounds i8, ptr %0, i64 336
  %28 = load ptr, ptr %27, align 8
  %29 = tail call noundef ptr @_ZN7glslang13TIntermediate13growAggregateEP11TIntermNodeS2_(ptr noundef nonnull align 8 dereferenceable(2024) %28, ptr noundef null, ptr noundef %.pre) #16
  store ptr %29, ptr %2, align 8
  br label %30

30:                                               ; preds = %26, %21, %19
  %31 = phi ptr [ %29, %26 ], [ %.pre, %21 ], [ null, %19 ]
  %32 = getelementptr inbounds i8, ptr %0, i64 336
  %33 = load ptr, ptr %32, align 8
  %34 = getelementptr inbounds i8, ptr %33, i64 128
  store ptr %31, ptr %34, align 8
  br label %35

35:                                               ; preds = %_ZN7glslang11HlslGrammar21acceptDeclarationListERP11TIntermNode.exit, %17, %30
  %.0 = phi i1 [ true, %30 ], [ false, %_ZN7glslang11HlslGrammar21acceptDeclarationListERP11TIntermNode.exit ], [ false, %17 ]
  ret i1 %.0
}